target datalayout = "e-m:e-p270:32:32-p271:32:32-p272:64:64-i64:64-i128:128-f80:128-n8:16:32:64-S128"
target triple = "x86_64-pc-linux-gnu"

%"class.std::shared_ptr.0" = type { %"class.std::__shared_ptr.1" }
%"class.std::__shared_ptr.1" = type { ptr, %"class.std::__shared_count" }
%"class.std::__shared_count" = type { ptr }
%"class.open_spiel::battleship::BattleshipState" = type { %"class.open_spiel::State.base", %"class.std::shared_ptr", %"class.std::vector.3" }
%"class.open_spiel::State.base" = type <{ ptr, %"class.std::shared_ptr.0", i32, i32, %"class.std::vector", i32 }>
%"class.std::vector" = type { %"struct.std::_Vector_base" }
%"struct.std::_Vector_base" = type { %"struct.std::_Vector_base<open_spiel::State::PlayerAction, std::allocator<open_spiel::State::PlayerAction>>::_Vector_impl" }
%"struct.std::_Vector_base<open_spiel::State::PlayerAction, std::allocator<open_spiel::State::PlayerAction>>::_Vector_impl" = type { %"struct.std::_Vector_base<open_spiel::State::PlayerAction, std::allocator<open_spiel::State::PlayerAction>>::_Vector_impl_data" }
%"struct.std::_Vector_base<open_spiel::State::PlayerAction, std::allocator<open_spiel::State::PlayerAction>>::_Vector_impl_data" = type { ptr, ptr, ptr }
%"class.std::shared_ptr" = type { %"class.std::__shared_ptr" }
%"class.std::__shared_ptr" = type { ptr, %"class.std::__shared_count" }
%"class.std::vector.3" = type { %"struct.std::_Vector_base.4" }
%"struct.std::_Vector_base.4" = type { %"struct.std::_Vector_base<open_spiel::battleship::GameMove, std::allocator<open_spiel::battleship::GameMove>>::_Vector_impl" }
%"struct.std::_Vector_base<open_spiel::battleship::GameMove, std::allocator<open_spiel::battleship::GameMove>>::_Vector_impl" = type { %"struct.std::_Vector_base<open_spiel::battleship::GameMove, std::allocator<open_spiel::battleship::GameMove>>::_Vector_impl_data" }
%"struct.std::_Vector_base<open_spiel::battleship::GameMove, std::allocator<open_spiel::battleship::GameMove>>::_Vector_impl_data" = type { ptr, ptr, ptr }
%"class.__gnu_cxx::__normal_iterator" = type { ptr }
%"struct.open_spiel::battleship::Ship" = type { i32, i32, double }
%"class.open_spiel::battleship::ShipPlacement" = type { %"class.open_spiel::battleship::CellAndDirection", %"struct.open_spiel::battleship::Ship" }
%"class.open_spiel::battleship::CellAndDirection" = type { i32, %"struct.open_spiel::battleship::Cell" }
%"struct.open_spiel::battleship::Cell" = type { i32, i32 }
%"struct.open_spiel::battleship::GameMove" = type { i32, %"class.absl::debian2::variant" }
%"class.absl::debian2::variant" = type { %"class.absl::debian2::variant_internal::VariantStateBase" }
%"class.absl::debian2::variant_internal::VariantStateBase" = type { %"union.absl::debian2::variant_internal::Union", i64 }
%"union.absl::debian2::variant_internal::Union" = type { %"class.open_spiel::battleship::ShipPlacement" }

; Function Attrs: mustprogress nounwind uwtable
define linkonce_odr noundef nonnull align 8 dereferenceable(32) ptr @_ZN4absl7debian216variant_internal11AccessUnionIRKNS1_5UnionIJN10open_spiel10battleship13ShipPlacementENS5_4CellEEEELm0EEENS1_23VariantAccessResultImplIXT0_EOT_E4typeESD_St17integral_constantImXT0_EE(ptr noundef nonnull align 8 dereferenceable(32) %0) #5 comdat {
  %2 = alloca ptr, align 8
  store ptr %0, ptr %2, align 8
  %3 = load ptr, ptr %2, align 8
  ret ptr %3
}

; Function Attrs: mustprogress uwtable
define linkonce_odr noundef nonnull align 8 dereferenceable(32) ptr @_ZN4absl7debian216variant_internal17VariantCoreAccess6AccessILm0ERKNS0_7variantIJN10open_spiel10battleship13ShipPlacementENS6_4CellEEEEEENS1_23VariantAccessResultImplIXT_EOT0_E4typeESE_(ptr noundef nonnull align 8 dereferenceable(40) %0) #4 comdat align 2 {
  %2 = alloca ptr, align 8
  store ptr %0, ptr %2, align 8
  %3 = load ptr, ptr %2, align 8
  %4 = getelementptr inbounds nuw %"class.absl::debian2::variant_internal::VariantStateBase", ptr %3, i32 0, i32 0
  %5 = call noundef nonnull align 8 dereferenceable(32) ptr @_ZN4absl7debian216variant_internal11AccessUnionIRKNS1_5UnionIJN10open_spiel10battleship13ShipPlacementENS5_4CellEEEELm0EEENS1_23VariantAccessResultImplIXT0_EOT_E4typeESD_St17integral_constantImXT0_EE(ptr noundef nonnull align 8 dereferenceable(32) %4)
  ret ptr %5
}

; Function Attrs: mustprogress nounwind uwtable
define linkonce_odr noundef nonnull align 8 dereferenceable(40) ptr @_ZN4absl7debian27forwardIRKNS0_7variantIJN10open_spiel10battleship13ShipPlacementENS4_4CellEEEEEEOT_RNSt16remove_referenceISA_E4typeE(ptr noundef nonnull align 8 dereferenceable(40) %0) #5 comdat {
  %2 = alloca ptr, align 8
  store ptr %0, ptr %2, align 8
  %3 = load ptr, ptr %2, align 8
  ret ptr %3
}

; Function Attrs: mustprogress noreturn uwtable
define linkonce_odr noundef nonnull align 8 dereferenceable(32) ptr @_ZN4absl7debian216variant_internal26TypedThrowBadVariantAccessIRKN10open_spiel10battleship13ShipPlacementEEET_v() #12 comdat {
  call void @_ZN4absl7debian216variant_internal21ThrowBadVariantAccessEv() #19
  unreachable
}

; Function Attrs: mustprogress uwtable
define linkonce_odr noundef nonnull align 8 dereferenceable(32) ptr @_ZN4absl7debian216variant_internal17VariantCoreAccess13CheckedAccessILm0ERKNS0_7variantIJN10open_spiel10battleship13ShipPlacementENS6_4CellEEEEEENS1_23VariantAccessResultImplIXT_EOT0_E4typeESE_(ptr noundef nonnull align 8 dereferenceable(40) %0) #4 comdat align 2 {
  %2 = alloca ptr, align 8
  store ptr %0, ptr %2, align 8
  %3 = load ptr, ptr %2, align 8
  %4 = getelementptr inbounds nuw %"class.absl::debian2::variant_internal::VariantStateBase", ptr %3, i32 0, i32 1
  %5 = load i64, ptr %4, align 8
  %6 = icmp ne i64 %5, 0
  br i1 %6, label %7, label %9

7:                                                ; preds = %1
  %8 = call noundef nonnull align 8 dereferenceable(32) ptr @_ZN4absl7debian216variant_internal26TypedThrowBadVariantAccessIRKN10open_spiel10battleship13ShipPlacementEEET_v() #19
  unreachable

9:                                                ; preds = %1
  %10 = load ptr, ptr %2, align 8
  %11 = call noundef nonnull align 8 dereferenceable(40) ptr @_ZN4absl7debian27forwardIRKNS0_7variantIJN10open_spiel10battleship13ShipPlacementENS4_4CellEEEEEEOT_RNSt16remove_referenceISA_E4typeE(ptr noundef nonnull align 8 dereferenceable(40) %10) #3
  %12 = call noundef nonnull align 8 dereferenceable(32) ptr @_ZN4absl7debian216variant_internal17VariantCoreAccess6AccessILm0ERKNS0_7variantIJN10open_spiel10battleship13ShipPlacementENS6_4CellEEEEEENS1_23VariantAccessResultImplIXT_EOT0_E4typeESE_(ptr noundef nonnull align 8 dereferenceable(40) %11)
  ret ptr %12
}

; Function Attrs: mustprogress nounwind uwtable
define linkonce_odr noundef i64 @_ZNK4absl7debian27variantIJN10open_spiel10battleship13ShipPlacementENS3_4CellEEE5indexEv(ptr noundef nonnull align 8 dereferenceable(40) %0) #5 comdat align 2 {
  %2 = alloca ptr, align 8
  store ptr %0, ptr %2, align 8
  %3 = load ptr, ptr %2, align 8
  %4 = getelementptr inbounds nuw %"class.absl::debian2::variant_internal::VariantStateBase", ptr %3, i32 0, i32 1
  %5 = load i64, ptr %4, align 8
  ret i64 %5
}

; Function Attrs: mustprogress nounwind uwtable
define linkonce_odr noundef nonnull align 8 dereferenceable(8) ptr @_ZNK9__gnu_cxx17__normal_iteratorIPKN10open_spiel10battleship8GameMoveESt6vectorIS3_SaIS3_EEE4baseEv(ptr noundef nonnull align 8 dereferenceable(8) %0) #5 comdat align 2 {
  %2 = alloca ptr, align 8
  store ptr %0, ptr %2, align 8
  %3 = load ptr, ptr %2, align 8
  %4 = getelementptr inbounds nuw %"class.__gnu_cxx::__normal_iterator", ptr %3, i32 0, i32 0
  ret ptr %4
}

; Function Attrs: mustprogress nounwind uwtable
define linkonce_odr void @_ZN9__gnu_cxx17__normal_iteratorIPKN10open_spiel10battleship8GameMoveESt6vectorIS3_SaIS3_EEEC2ERKS5_(ptr noundef nonnull align 8 dereferenceable(8) %0, ptr noundef nonnull align 8 dereferenceable(8) %1) unnamed_addr #5 comdat align 2 {
  %3 = alloca ptr, align 8
  %4 = alloca ptr, align 8
  store ptr %0, ptr %3, align 8
  store ptr %1, ptr %4, align 8
  %5 = load ptr, ptr %3, align 8
  %6 = getelementptr inbounds nuw %"class.__gnu_cxx::__normal_iterator", ptr %5, i32 0, i32 0
  %7 = load ptr, ptr %4, align 8
  %8 = load ptr, ptr %7, align 8
  store ptr %8, ptr %6, align 8
  ret void
}

; Function Attrs: mustprogress nounwind uwtable
define linkonce_odr noundef nonnull align 8 dereferenceable(8) ptr @_ZN9__gnu_cxx17__normal_iteratorIPKN10open_spiel10battleship8GameMoveESt6vectorIS3_SaIS3_EEEppEv(ptr noundef nonnull align 8 dereferenceable(8) %0) #5 comdat align 2 {
  %2 = alloca ptr, align 8
  store ptr %0, ptr %2, align 8
  %3 = load ptr, ptr %2, align 8
  %4 = getelementptr inbounds nuw %"class.__gnu_cxx::__normal_iterator", ptr %3, i32 0, i32 0
  %5 = load ptr, ptr %4, align 8
  %6 = getelementptr inbounds %"struct.open_spiel::battleship::GameMove", ptr %5, i32 1
  store ptr %6, ptr %4, align 8
  ret ptr %3
}

; Function Attrs: mustprogress uwtable
define linkonce_odr noundef nonnull align 8 dereferenceable(32) ptr @_ZN4absl7debian23getIN10open_spiel10battleship13ShipPlacementEJS4_NS3_4CellEEEERKT_RKNS0_7variantIJDpT0_EEE(ptr noundef nonnull align 8 dereferenceable(40) %0) #4 comdat {
  %2 = alloca ptr, align 8
  store ptr %0, ptr %2, align 8
  %3 = load ptr, ptr %2, align 8
  %4 = call noundef nonnull align 8 dereferenceable(32) ptr @_ZN4absl7debian216variant_internal17VariantCoreAccess13CheckedAccessILm0ERKNS0_7variantIJN10open_spiel10battleship13ShipPlacementENS6_4CellEEEEEENS1_23VariantAccessResultImplIXT_EOT0_E4typeESE_(ptr noundef nonnull align 8 dereferenceable(40) %3)
  ret ptr %4
}

; Function Attrs: mustprogress nounwind uwtable
define linkonce_odr noundef zeroext i1 @_ZN4absl7debian217holds_alternativeIN10open_spiel10battleship13ShipPlacementEJS4_NS3_4CellEEEEbRKNS0_7variantIJDpT0_EEE(ptr noundef nonnull align 8 dereferenceable(40) %0) #5 comdat {
  %2 = alloca ptr, align 8
  store ptr %0, ptr %2, align 8
  %3 = load ptr, ptr %2, align 8
  %4 = call noundef i64 @_ZNK4absl7debian27variantIJN10open_spiel10battleship13ShipPlacementENS3_4CellEEE5indexEv(ptr noundef nonnull align 8 dereferenceable(40) %3) #3
  %5 = icmp eq i64 %4, 0
  ret i1 %5
}

; Function Attrs: mustprogress nounwind uwtable
define linkonce_odr noundef nonnull align 8 dereferenceable(48) ptr @_ZNK9__gnu_cxx17__normal_iteratorIPKN10open_spiel10battleship8GameMoveESt6vectorIS3_SaIS3_EEEdeEv(ptr noundef nonnull align 8 dereferenceable(8) %0) #5 comdat align 2 {
  %2 = alloca ptr, align 8
  store ptr %0, ptr %2, align 8
  %3 = load ptr, ptr %2, align 8
  %4 = getelementptr inbounds nuw %"class.__gnu_cxx::__normal_iterator", ptr %3, i32 0, i32 0
  %5 = load ptr, ptr %4, align 8
  ret ptr %5
}

; Function Attrs: mustprogress nounwind uwtable
define linkonce_odr noundef zeroext i1 @_ZN9__gnu_cxxneIPKN10open_spiel10battleship8GameMoveESt6vectorIS3_SaIS3_EEEEbRKNS_17__normal_iteratorIT_T0_EESE_(ptr noundef nonnull align 8 dereferenceable(8) %0, ptr noundef nonnull align 8 dereferenceable(8) %1) #5 comdat {
  %3 = alloca ptr, align 8
  %4 = alloca ptr, align 8
  store ptr %0, ptr %3, align 8
  store ptr %1, ptr %4, align 8
  %5 = load ptr, ptr %3, align 8
  %6 = call noundef nonnull align 8 dereferenceable(8) ptr @_ZNK9__gnu_cxx17__normal_iteratorIPKN10open_spiel10battleship8GameMoveESt6vectorIS3_SaIS3_EEE4baseEv(ptr noundef nonnull align 8 dereferenceable(8) %5) #3
  %7 = load ptr, ptr %6, align 8
  %8 = load ptr, ptr %4, align 8
  %9 = call noundef nonnull align 8 dereferenceable(8) ptr @_ZNK9__gnu_cxx17__normal_iteratorIPKN10open_spiel10battleship8GameMoveESt6vectorIS3_SaIS3_EEE4baseEv(ptr noundef nonnull align 8 dereferenceable(8) %8) #3
  %10 = load ptr, ptr %9, align 8
  %11 = icmp ne ptr %7, %10
  ret i1 %11
}

; Function Attrs: mustprogress nounwind uwtable
define linkonce_odr ptr @_ZNKSt6vectorIN10open_spiel10battleship8GameMoveESaIS2_EE3endEv(ptr noundef nonnull align 8 dereferenceable(24) %0) #5 comdat align 2 {
  %2 = alloca %"class.__gnu_cxx::__normal_iterator", align 8
  %3 = alloca ptr, align 8
  store ptr %0, ptr %3, align 8
  %4 = load ptr, ptr %3, align 8
  %5 = getelementptr inbounds nuw %"struct.std::_Vector_base.4", ptr %4, i32 0, i32 0
  %6 = getelementptr inbounds nuw %"struct.std::_Vector_base<open_spiel::battleship::GameMove, std::allocator<open_spiel::battleship::GameMove>>::_Vector_impl_data", ptr %5, i32 0, i32 1
  call void @_ZN9__gnu_cxx17__normal_iteratorIPKN10open_spiel10battleship8GameMoveESt6vectorIS3_SaIS3_EEEC2ERKS5_(ptr noundef nonnull align 8 dereferenceable(8) %2, ptr noundef nonnull align 8 dereferenceable(8) %6) #3
  %7 = getelementptr inbounds nuw %"class.__gnu_cxx::__normal_iterator", ptr %2, i32 0, i32 0
  %8 = load ptr, ptr %7, align 8
  ret ptr %8
}

; Function Attrs: mustprogress nounwind uwtable
define linkonce_odr ptr @_ZNKSt6vectorIN10open_spiel10battleship8GameMoveESaIS2_EE5beginEv(ptr noundef nonnull align 8 dereferenceable(24) %0) #5 comdat align 2 {
  %2 = alloca %"class.__gnu_cxx::__normal_iterator", align 8
  %3 = alloca ptr, align 8
  store ptr %0, ptr %3, align 8
  %4 = load ptr, ptr %3, align 8
  %5 = getelementptr inbounds nuw %"struct.std::_Vector_base.4", ptr %4, i32 0, i32 0
  %6 = getelementptr inbounds nuw %"struct.std::_Vector_base<open_spiel::battleship::GameMove, std::allocator<open_spiel::battleship::GameMove>>::_Vector_impl_data", ptr %5, i32 0, i32 0
  call void @_ZN9__gnu_cxx17__normal_iteratorIPKN10open_spiel10battleship8GameMoveESt6vectorIS3_SaIS3_EEEC2ERKS5_(ptr noundef nonnull align 8 dereferenceable(8) %2, ptr noundef nonnull align 8 dereferenceable(8) %6) #3
  %7 = getelementptr inbounds nuw %"class.__gnu_cxx::__normal_iterator", ptr %2, i32 0, i32 0
  %8 = load ptr, ptr %7, align 8
  ret ptr %8
}

; Function Attrs: mustprogress uwtable
define noundef zeroext i1 @_ZNK10open_spiel10battleship15BattleshipState12IsShipPlacedERKNS0_4ShipEi(ptr noundef nonnull align 8 dereferenceable(104) %0, ptr noundef nonnull align 8 dereferenceable(16) %1, i32 noundef %2) #4 align 2 {
  %4 = alloca i1, align 1
  %5 = alloca ptr, align 8
  %6 = alloca ptr, align 8
  %7 = alloca i32, align 4
  %8 = alloca ptr, align 8
  %9 = alloca %"class.__gnu_cxx::__normal_iterator", align 8
  %10 = alloca %"class.__gnu_cxx::__normal_iterator", align 8
  %11 = alloca ptr, align 8
  store ptr %0, ptr %5, align 8
  store ptr %1, ptr %6, align 8
  store i32 %2, ptr %7, align 4
  %12 = load ptr, ptr %5, align 8
  %13 = getelementptr inbounds nuw %"class.open_spiel::battleship::BattleshipState", ptr %12, i32 0, i32 2
  store ptr %13, ptr %8, align 8
  %14 = load ptr, ptr %8, align 8
  %15 = call ptr @_ZNKSt6vectorIN10open_spiel10battleship8GameMoveESaIS2_EE5beginEv(ptr noundef nonnull align 8 dereferenceable(24) %14) #3
  %16 = getelementptr inbounds nuw %"class.__gnu_cxx::__normal_iterator", ptr %9, i32 0, i32 0
  store ptr %15, ptr %16, align 8
  %17 = load ptr, ptr %8, align 8
  %18 = call ptr @_ZNKSt6vectorIN10open_spiel10battleship8GameMoveESaIS2_EE3endEv(ptr noundef nonnull align 8 dereferenceable(24) %17) #3
  %19 = getelementptr inbounds nuw %"class.__gnu_cxx::__normal_iterator", ptr %10, i32 0, i32 0
  store ptr %18, ptr %19, align 8
  br label %20

20:                                               ; preds = %46, %3
  %21 = call noundef zeroext i1 @_ZN9__gnu_cxxneIPKN10open_spiel10battleship8GameMoveESt6vectorIS3_SaIS3_EEEEbRKNS_17__normal_iteratorIT_T0_EESE_(ptr noundef nonnull align 8 dereferenceable(8) %9, ptr noundef nonnull align 8 dereferenceable(8) %10) #3
  br i1 %21, label %22, label %48

22:                                               ; preds = %20
  %23 = call noundef nonnull align 8 dereferenceable(48) ptr @_ZNK9__gnu_cxx17__normal_iteratorIPKN10open_spiel10battleship8GameMoveESt6vectorIS3_SaIS3_EEEdeEv(ptr noundef nonnull align 8 dereferenceable(8) %9) #3
  store ptr %23, ptr %11, align 8
  %24 = load ptr, ptr %11, align 8
  %25 = getelementptr inbounds nuw %"struct.open_spiel::battleship::GameMove", ptr %24, i32 0, i32 0
  %26 = load i32, ptr %25, align 8
  %27 = load i32, ptr %7, align 4
  %28 = icmp eq i32 %26, %27
  br i1 %28, label %29, label %45

29:                                               ; preds = %22
  %30 = load ptr, ptr %11, align 8
  %31 = getelementptr inbounds nuw %"struct.open_spiel::battleship::GameMove", ptr %30, i32 0, i32 1
  %32 = call noundef zeroext i1 @_ZN4absl7debian217holds_alternativeIN10open_spiel10battleship13ShipPlacementEJS4_NS3_4CellEEEEbRKNS0_7variantIJDpT0_EEE(ptr noundef nonnull align 8 dereferenceable(40) %31) #3
  br i1 %32, label %33, label %45

33:                                               ; preds = %29
  %34 = load ptr, ptr %11, align 8
  %35 = getelementptr inbounds nuw %"struct.open_spiel::battleship::GameMove", ptr %34, i32 0, i32 1
  %36 = call noundef nonnull align 8 dereferenceable(32) ptr @_ZN4absl7debian23getIN10open_spiel10battleship13ShipPlacementEJS4_NS3_4CellEEEERKT_RKNS0_7variantIJDpT0_EEE(ptr noundef nonnull align 8 dereferenceable(40) %35)
  %37 = getelementptr inbounds nuw %"class.open_spiel::battleship::ShipPlacement", ptr %36, i32 0, i32 1
  %38 = getelementptr inbounds nuw %"struct.open_spiel::battleship::Ship", ptr %37, i32 0, i32 0
  %39 = load i32, ptr %38, align 8
  %40 = load ptr, ptr %6, align 8
  %41 = getelementptr inbounds nuw %"struct.open_spiel::battleship::Ship", ptr %40, i32 0, i32 0
  %42 = load i32, ptr %41, align 8
  %43 = icmp eq i32 %39, %42
  br i1 %43, label %44, label %45

44:                                               ; preds = %33
  store i1 true, ptr %4, align 1
  br label %49

45:                                               ; preds = %33, %29, %22
  br label %46

46:                                               ; preds = %45
  %47 = call noundef nonnull align 8 dereferenceable(8) ptr @_ZN9__gnu_cxx17__normal_iteratorIPKN10open_spiel10battleship8GameMoveESt6vectorIS3_SaIS3_EEEppEv(ptr noundef nonnull align 8 dereferenceable(8) %9) #3
  br label %20

48:                                               ; preds = %20
  store i1 false, ptr %4, align 1
  br label %49

49:                                               ; preds = %48, %44
  %50 = load i1, ptr %4, align 1
  ret i1 %50
}