; Function Attrs: mustprogress nofree norecurse nosync nounwind willreturn memory(read, inaccessiblemem: none) uwtable
define noundef zeroext i1 @_ZNK10open_spiel10battleship15BattleshipState12IsShipPlacedERKNS0_4ShipEi(ptr noundef nonnull readonly align 8 captures(none) dereferenceable(104) %0, ptr noundef nonnull readonly align 8 captures(none) dereferenceable(16) %1, i32 noundef %2) local_unnamed_addr #5 align 2 {
  %4 = getelementptr inbounds nuw i8, ptr %0, i64 80
  %5 = load ptr, ptr %4, align 8
  %6 = getelementptr inbounds nuw i8, ptr %0, i64 88
  %7 = load ptr, ptr %6, align 8
  %.not = icmp eq ptr %5, %7
  br i1 %.not, label %._crit_edge, label %.lr.ph

.lr.ph:                                           ; preds = %3
  %8 = load i32, ptr %1, align 8
  br label %9

9:                                                ; preds = %.lr.ph, %19
  %.sroa.08.011 = phi ptr [ %5, %.lr.ph ], [ %20, %19 ]
  %10 = load i32, ptr %.sroa.08.011, align 8
  %11 = icmp eq i32 %10, %2
  br i1 %11, label %12, label %19

12:                                               ; preds = %9
  %13 = getelementptr inbounds nuw i8, ptr %.sroa.08.011, i64 40
  %14 = load i64, ptr %13, align 8
  %15 = icmp eq i64 %14, 0
  br i1 %15, label %_ZN4absl7debian23getIN10open_spiel10battleship13ShipPlacementEJS4_NS3_4CellEEEERKT_RKNS0_7variantIJDpT0_EEE.exit, label %19

_ZN4absl7debian23getIN10open_spiel10battleship13ShipPlacementEJS4_NS3_4CellEEEERKT_RKNS0_7variantIJDpT0_EEE.exit: ; preds = %12
  %16 = getelementptr inbounds nuw i8, ptr %.sroa.08.011, i64 24
  %17 = load i32, ptr %16, align 8
  %18 = icmp eq i32 %17, %8
  br i1 %18, label %._crit_edge, label %19

19:                                               ; preds = %9, %12, %_ZN4absl7debian23getIN10open_spiel10battleship13ShipPlacementEJS4_NS3_4CellEEEERKT_RKNS0_7variantIJDpT0_EEE.exit
  %20 = getelementptr inbounds nuw i8, ptr %.sroa.08.011, i64 48
  %.not13 = icmp eq ptr %20, %7
  br i1 %.not13, label %._crit_edge, label %9

._crit_edge:                                      ; preds = %_ZN4absl7debian23getIN10open_spiel10battleship13ShipPlacementEJS4_NS3_4CellEEEERKT_RKNS0_7variantIJDpT0_EEE.exit, %19, %3
  %.lcssa = phi i1 [ false, %3 ], [ false, %19 ], [ true, %_ZN4absl7debian23getIN10open_spiel10battleship13ShipPlacementEJS4_NS3_4CellEEEERKT_RKNS0_7variantIJDpT0_EEE.exit ]
  ret i1 %.lcssa
}